; Function Attrs: nounwind uwtable
define internal ptr @signal_signal(ptr noundef readonly captures(none) %0, ptr noundef readonly captures(none) %1, i64 noundef %2) #2 {
  %or.cond = icmp eq i64 %2, 2
  br i1 %or.cond, label %6, label %4

4:                                                ; preds = %3
  %5 = tail call i32 @_PyArg_CheckPositional(ptr noundef nonnull @.str.8, i64 noundef %2, i64 noundef 2, i64 noundef 2) #15
  %.not = icmp eq i32 %5, 0
  br i1 %.not, label %signal_signal_impl.exit, label %6

6:                                                ; preds = %3, %4
  %7 = load ptr, ptr %1, align 8, !tbaa !176
  %8 = tail call i32 @PyLong_AsInt(ptr noundef %7) #15
  %9 = icmp eq i32 %8, -1
  br i1 %9, label %14, label %.split

.split:                                           ; preds = %6
  %10 = getelementptr i8, ptr %1, i64 8
  %11 = load ptr, ptr %10, align 8, !tbaa !176
  %12 = getelementptr i8, ptr %0, i64 32
  %.val13 = load ptr, ptr %12, align 8, !tbaa !202
  %13 = tail call fastcc ptr @signal_signal_impl(ptr %.val13, i32 noundef %8, ptr noundef %11)
  br label %signal_signal_impl.exit

14:                                               ; preds = %6
  %15 = tail call ptr @PyErr_Occurred() #15
  %.not12 = icmp eq ptr %15, null
  br i1 %.not12, label %.split10, label %signal_signal_impl.exit

.split10:                                         ; preds = %14
  %16 = tail call align 8 ptr @llvm.threadlocal.address.p0(ptr align 8 @_Py_tss_tstate)
  %17 = load ptr, ptr %16, align 8, !tbaa !183
  %18 = getelementptr inbounds nuw i8, ptr %17, i64 16
  %19 = load ptr, ptr %18, align 8, !tbaa !184
  %20 = tail call i64 @PyThread_get_thread_ident() #15
  %21 = load i64, ptr getelementptr inbounds nuw (i8, ptr @_PyRuntime, i64 728), align 8, !tbaa !185
  %.not.i.i = icmp ne i64 %20, %21
  %22 = load ptr, ptr getelementptr inbounds nuw (i8, ptr @_PyRuntime, i64 712), align 8
  %23 = icmp ne ptr %19, %22
  %narrow.i.not.i = select i1 %.not.i.i, i1 true, i1 %23
  %24 = load ptr, ptr @PyExc_ValueError, align 8, !tbaa !176
  br i1 %narrow.i.not.i, label %25, label %26

25:                                               ; preds = %.split10
  tail call void @_PyErr_SetString(ptr noundef nonnull %17, ptr noundef %24, ptr noundef nonnull @.str.24) #15
  br label %signal_signal_impl.exit

26:                                               ; preds = %.split10
  tail call void @_PyErr_SetString(ptr noundef nonnull %17, ptr noundef %24, ptr noundef nonnull @.str.25) #15
  br label %signal_signal_impl.exit

signal_signal_impl.exit:                          ; preds = %26, %25, %.split, %14, %4
  %.0 = phi ptr [ null, %14 ], [ null, %4 ], [ %13, %.split ], [ null, %25 ], [ null, %26 ]
  ret ptr %.0
}